; Function Attrs: nounwind uwtable
define hidden void @png_set_compression_buffer_size(ptr noalias noundef %0, i64 noundef %1) local_unnamed_addr #2 {
  %3 = icmp eq ptr %0, null
  br i1 %3, label %14, label %4

4:                                                ; preds = %2
  %5 = add i64 %1, -2147483648
  %or.cond = icmp ult i64 %5, -2147483647
  br i1 %or.cond, label %6, label %7

6:                                                ; preds = %4
  tail call void @png_error(ptr noundef nonnull %0, ptr noundef nonnull @.str.47) #14
  unreachable

7:                                                ; preds = %4
  %8 = getelementptr inbounds i8, ptr %0, i64 292
  %9 = load i32, ptr %8, align 4
  %10 = and i32 %9, 32768
  %.not = icmp eq i32 %10, 0
  br i1 %.not, label %14, label %11

11:                                               ; preds = %7
  %12 = trunc nuw nsw i64 %1 to i32
  %13 = getelementptr inbounds i8, ptr %0, i64 1024
  store i32 %12, ptr %13, align 8
  br label %14

14:                                               ; preds = %2, %11, %7
  ret void
}